; Function Attrs: nounwind uwtable
define internal void @release_indev_cb(ptr noundef %0) #0 {
  %2 = tail call ptr @lv_event_get_user_data(ptr noundef %0) #2
  %3 = tail call ptr @lv_indev_get_driver_data(ptr noundef %2) #2
  %.not = icmp eq ptr %3, null
  br i1 %.not, label %5, label %4

4:                                                ; preds = %1
  tail call void @lv_indev_set_driver_data(ptr noundef %2, ptr noundef null) #2
  tail call void @lv_indev_set_read_cb(ptr noundef %2, ptr noundef null) #2
  tail call void @lv_free(ptr noundef nonnull %3) #2
  br label %5

5:                                                ; preds = %4, %1
  ret void
}